; Function Attrs: mustprogress nounwind uwtable
define internal fastcc void @_ZSt8_DestroyIPZN25cmBinUtilsWindowsPELinker16ScanDependenciesERKNSt7__cxx1112basic_stringIcSt11char_traitsIcESaIcEEEN12cmStateEnums10TargetTypeEE15WinPEDependencyEvT_SD_(ptr noundef %0, ptr noundef readnone %1) unnamed_addr #4 {
  %.not4.i = icmp eq ptr %0, %1
  br i1 %.not4.i, label %_ZNSt12_Destroy_auxILb0EE9__destroyIPZN25cmBinUtilsWindowsPELinker16ScanDependenciesERKNSt7__cxx1112basic_stringIcSt11char_traitsIcESaIcEEEN12cmStateEnums10TargetTypeEE15WinPEDependencyEEvT_SF_.exit, label %.lr.ph.i

.lr.ph.i:                                         ; preds = %2, %.lr.ph.i
  %.05.i = phi ptr [ %4, %.lr.ph.i ], [ %0, %2 ]
  %3 = getelementptr inbounds i8, ptr %.05.i, i64 32
  tail call void @_ZNSt7__cxx1112basic_stringIcSt11char_traitsIcESaIcEED1Ev(ptr noundef nonnull align 8 dereferenceable(32) %3) #13
  tail call void @_ZNSt7__cxx1112basic_stringIcSt11char_traitsIcESaIcEED1Ev(ptr noundef nonnull align 8 dereferenceable(32) %.05.i) #13
  %4 = getelementptr inbounds i8, ptr %.05.i, i64 64
  %.not.i = icmp eq ptr %4, %1
  br i1 %.not.i, label %_ZNSt12_Destroy_auxILb0EE9__destroyIPZN25cmBinUtilsWindowsPELinker16ScanDependenciesERKNSt7__cxx1112basic_stringIcSt11char_traitsIcESaIcEEEN12cmStateEnums10TargetTypeEE15WinPEDependencyEEvT_SF_.exit, label %.lr.ph.i, !llvm.loop !13

_ZNSt12_Destroy_auxILb0EE9__destroyIPZN25cmBinUtilsWindowsPELinker16ScanDependenciesERKNSt7__cxx1112basic_stringIcSt11char_traitsIcESaIcEEEN12cmStateEnums10TargetTypeEE15WinPEDependencyEEvT_SF_.exit: ; preds = %.lr.ph.i, %2
  ret void
}